target datalayout = "e-m:e-p270:32:32-p271:32:32-p272:64:64-i64:64-i128:128-f80:128-n8:16:32:64-S128"
target triple = "x86_64-unknown-linux-gnu"

%"class.std::__cxx11::basic_string" = type { %"struct.std::__cxx11::basic_string<char>::_Alloc_hider", i64, %union.anon }
%"struct.std::__cxx11::basic_string<char>::_Alloc_hider" = type { ptr }
%union.anon = type { i64, [8 x i8] }
%"class.std::allocator.0" = type { i8 }

@.str.4 = private unnamed_addr constant [3 x i8] c"./\00", align 1
@_ZZN6Assimp18ZipArchiveIOSystem9Implement16SimplifyFilenameERNSt7__cxx1112basic_stringIcSt11char_traitsIcESaIcEEEE8relativeB5cxx11 = internal global %"class.std::__cxx11::basic_string" zeroinitializer, align 8
@_ZGVZN6Assimp18ZipArchiveIOSystem9Implement16SimplifyFilenameERNSt7__cxx1112basic_stringIcSt11char_traitsIcESaIcEEEE8relativeB5cxx11 = internal global i64 0, align 8
@.str.5 = private unnamed_addr constant [5 x i8] c"/../\00", align 1
@__dso_handle = external hidden global i8

; Function Attrs: mustprogress uwtable
define linkonce_odr hidden void @_ZN6Assimp14ReplaceAllCharERNSt7__cxx1112basic_stringIcSt11char_traitsIcESaIcEEEcc(ptr noundef nonnull align 8 dereferenceable(32) %data, i8 noundef signext %before, i8 noundef signext %after) #2 comdat {
entry:
  %data.addr = alloca ptr, align 8
  %before.addr = alloca i8, align 1
  %after.addr = alloca i8, align 1
  %pos = alloca i64, align 8
  store ptr %data, ptr %data.addr, align 8
  store i8 %before, ptr %before.addr, align 1
  store i8 %after, ptr %after.addr, align 1
  %0 = load ptr, ptr %data.addr, align 8
  %1 = load i8, ptr %before.addr, align 1
  %call = call noundef i64 @_ZNKSt7__cxx1112basic_stringIcSt11char_traitsIcESaIcEE4findEcm(ptr noundef nonnull align 8 dereferenceable(32) %0, i8 noundef signext %1, i64 noundef 0) #9
  store i64 %call, ptr %pos, align 8
  br label %while.cond

while.cond:                                       ; preds = %while.body, %entry
  %2 = load i64, ptr %pos, align 8
  %cmp = icmp ne i64 %2, -1
  br i1 %cmp, label %while.body, label %while.end

while.body:                                       ; preds = %while.cond
  %3 = load i8, ptr %after.addr, align 1
  %4 = load ptr, ptr %data.addr, align 8
  %5 = load i64, ptr %pos, align 8
  %call1 = call noundef nonnull align 1 dereferenceable(1) ptr @_ZNSt7__cxx1112basic_stringIcSt11char_traitsIcESaIcEEixEm(ptr noundef nonnull align 8 dereferenceable(32) %4, i64 noundef %5)
  store i8 %3, ptr %call1, align 1
  %6 = load ptr, ptr %data.addr, align 8
  %7 = load i8, ptr %before.addr, align 1
  %8 = load i64, ptr %pos, align 8
  %add = add i64 %8, 1
  %call2 = call noundef i64 @_ZNKSt7__cxx1112basic_stringIcSt11char_traitsIcESaIcEE4findEcm(ptr noundef nonnull align 8 dereferenceable(32) %6, i8 noundef signext %7, i64 noundef %add) #9
  store i64 %call2, ptr %pos, align 8
  br label %while.cond, !llvm.loop !10

while.end:                                        ; preds = %while.cond
  ret void
}

; Function Attrs: mustprogress uwtable
define hidden void @_ZN6Assimp18ZipArchiveIOSystem9Implement16SimplifyFilenameERNSt7__cxx1112basic_stringIcSt11char_traitsIcESaIcEEE(ptr noundef nonnull align 8 dereferenceable(32) %filename) #2 align 2 personality ptr @__gxx_personality_v0 {
entry:
  %filename.addr = alloca ptr, align 8
  %pos = alloca i64, align 8
  %ref.tmp = alloca %"class.std::allocator.0", align 1
  %exn.slot = alloca ptr, align 8
  %ehselector.slot = alloca i32, align 4
  %relsize = alloca i64, align 8
  %prevpos = alloca i64, align 8
  store ptr %filename, ptr %filename.addr, align 8
  %0 = load ptr, ptr %filename.addr, align 8
  call void @_ZN6Assimp14ReplaceAllCharERNSt7__cxx1112basic_stringIcSt11char_traitsIcESaIcEEEcc(ptr noundef nonnull align 8 dereferenceable(32) %0, i8 noundef signext 92, i8 noundef signext 47)
  %1 = load ptr, ptr %filename.addr, align 8
  %call = call noundef i64 @_ZNKSt7__cxx1112basic_stringIcSt11char_traitsIcESaIcEE17find_first_not_ofEPKcm(ptr noundef nonnull align 8 dereferenceable(32) %1, ptr noundef @.str.4, i64 noundef 0) #9
  store i64 %call, ptr %pos, align 8
  %2 = load i64, ptr %pos, align 8
  %cmp = icmp ne i64 %2, 0
  br i1 %cmp, label %if.then, label %if.end

if.then:                                          ; preds = %entry
  %3 = load ptr, ptr %filename.addr, align 8
  %4 = load i64, ptr %pos, align 8
  %call1 = call noundef nonnull align 8 dereferenceable(32) ptr @_ZNSt7__cxx1112basic_stringIcSt11char_traitsIcESaIcEE5eraseEmm(ptr noundef nonnull align 8 dereferenceable(32) %3, i64 noundef 0, i64 noundef %4)
  br label %if.end

if.end:                                           ; preds = %if.then, %entry
  %5 = load atomic i8, ptr @_ZGVZN6Assimp18ZipArchiveIOSystem9Implement16SimplifyFilenameERNSt7__cxx1112basic_stringIcSt11char_traitsIcESaIcEEEE8relativeB5cxx11 acquire, align 8
  %guard.uninitialized = icmp eq i8 %5, 0
  br i1 %guard.uninitialized, label %init.check, label %init.end, !prof !8

init.check:                                       ; preds = %if.end
  %6 = call i32 @__cxa_guard_acquire(ptr @_ZGVZN6Assimp18ZipArchiveIOSystem9Implement16SimplifyFilenameERNSt7__cxx1112basic_stringIcSt11char_traitsIcESaIcEEEE8relativeB5cxx11) #9
  %tobool = icmp ne i32 %6, 0
  br i1 %tobool, label %init, label %init.end

init:                                             ; preds = %init.check
  call void @_ZNSaIcEC1Ev(ptr noundef nonnull align 1 dereferenceable(1) %ref.tmp) #9
  invoke void @_ZNSt7__cxx1112basic_stringIcSt11char_traitsIcESaIcEEC2IS3_EEPKcRKS3_(ptr noundef nonnull align 8 dereferenceable(32) @_ZZN6Assimp18ZipArchiveIOSystem9Implement16SimplifyFilenameERNSt7__cxx1112basic_stringIcSt11char_traitsIcESaIcEEEE8relativeB5cxx11, ptr noundef @.str.5, ptr noundef nonnull align 1 dereferenceable(1) %ref.tmp)
          to label %invoke.cont unwind label %lpad

invoke.cont:                                      ; preds = %init
  call void @_ZNSaIcED1Ev(ptr noundef nonnull align 1 dereferenceable(1) %ref.tmp) #9
  %7 = call i32 @__cxa_atexit(ptr @_ZNSt7__cxx1112basic_stringIcSt11char_traitsIcESaIcEED1Ev, ptr @_ZZN6Assimp18ZipArchiveIOSystem9Implement16SimplifyFilenameERNSt7__cxx1112basic_stringIcSt11char_traitsIcESaIcEEEE8relativeB5cxx11, ptr @__dso_handle) #9
  call void @__cxa_guard_release(ptr @_ZGVZN6Assimp18ZipArchiveIOSystem9Implement16SimplifyFilenameERNSt7__cxx1112basic_stringIcSt11char_traitsIcESaIcEEEE8relativeB5cxx11) #9
  br label %init.end

init.end:                                         ; preds = %invoke.cont, %init.check, %if.end
  %call2 = call noundef i64 @_ZNKSt7__cxx1112basic_stringIcSt11char_traitsIcESaIcEE4sizeEv(ptr noundef nonnull align 8 dereferenceable(32) @_ZZN6Assimp18ZipArchiveIOSystem9Implement16SimplifyFilenameERNSt7__cxx1112basic_stringIcSt11char_traitsIcESaIcEEEE8relativeB5cxx11) #9
  %sub = sub i64 %call2, 1
  store i64 %sub, ptr %relsize, align 8
  %8 = load ptr, ptr %filename.addr, align 8
  %call3 = call noundef i64 @_ZNKSt7__cxx1112basic_stringIcSt11char_traitsIcESaIcEE4findERKS4_m(ptr noundef nonnull align 8 dereferenceable(32) %8, ptr noundef nonnull align 8 dereferenceable(32) @_ZZN6Assimp18ZipArchiveIOSystem9Implement16SimplifyFilenameERNSt7__cxx1112basic_stringIcSt11char_traitsIcESaIcEEEE8relativeB5cxx11, i64 noundef 0) #9
  store i64 %call3, ptr %pos, align 8
  br label %while.cond

while.cond:                                       ; preds = %if.end14, %init.end
  %9 = load i64, ptr %pos, align 8
  %cmp4 = icmp ne i64 %9, -1
  br i1 %cmp4, label %while.body, label %while.end

while.body:                                       ; preds = %while.cond
  %10 = load ptr, ptr %filename.addr, align 8
  %11 = load i64, ptr %pos, align 8
  %sub5 = sub i64 %11, 1
  %call6 = call noundef i64 @_ZNKSt7__cxx1112basic_stringIcSt11char_traitsIcESaIcEE5rfindEcm(ptr noundef nonnull align 8 dereferenceable(32) %10, i8 noundef signext 47, i64 noundef %sub5) #9
  store i64 %call6, ptr %prevpos, align 8
  %12 = load i64, ptr %prevpos, align 8
  %13 = load i64, ptr %pos, align 8
  %cmp7 = icmp eq i64 %12, %13
  br i1 %cmp7, label %if.then8, label %if.else

if.then8:                                         ; preds = %while.body
  %14 = load ptr, ptr %filename.addr, align 8
  %15 = load i64, ptr %pos, align 8
  %call9 = call noundef i64 @_ZNKSt7__cxx1112basic_stringIcSt11char_traitsIcESaIcEE4sizeEv(ptr noundef nonnull align 8 dereferenceable(32) @_ZZN6Assimp18ZipArchiveIOSystem9Implement16SimplifyFilenameERNSt7__cxx1112basic_stringIcSt11char_traitsIcESaIcEEEE8relativeB5cxx11) #9
  %add = add i64 %15, %call9
  %call10 = call noundef nonnull align 8 dereferenceable(32) ptr @_ZNSt7__cxx1112basic_stringIcSt11char_traitsIcESaIcEE5eraseEmm(ptr noundef nonnull align 8 dereferenceable(32) %14, i64 noundef 0, i64 noundef %add)
  br label %if.end14

lpad:                                             ; preds = %init
  %16 = landingpad { ptr, i32 }
          cleanup
  %17 = extractvalue { ptr, i32 } %16, 0
  store ptr %17, ptr %exn.slot, align 8
  %18 = extractvalue { ptr, i32 } %16, 1
  store i32 %18, ptr %ehselector.slot, align 4
  call void @_ZNSaIcED1Ev(ptr noundef nonnull align 1 dereferenceable(1) %ref.tmp) #9
  call void @__cxa_guard_abort(ptr @_ZGVZN6Assimp18ZipArchiveIOSystem9Implement16SimplifyFilenameERNSt7__cxx1112basic_stringIcSt11char_traitsIcESaIcEEEE8relativeB5cxx11) #9
  br label %eh.resume

if.else:                                          ; preds = %while.body
  %19 = load ptr, ptr %filename.addr, align 8
  %20 = load i64, ptr %prevpos, align 8
  %21 = load i64, ptr %pos, align 8
  %22 = load i64, ptr %relsize, align 8
  %add11 = add i64 %21, %22
  %23 = load i64, ptr %prevpos, align 8
  %sub12 = sub i64 %add11, %23
  %call13 = call noundef nonnull align 8 dereferenceable(32) ptr @_ZNSt7__cxx1112basic_stringIcSt11char_traitsIcESaIcEE5eraseEmm(ptr noundef nonnull align 8 dereferenceable(32) %19, i64 noundef %20, i64 noundef %sub12)
  br label %if.end14

if.end14:                                         ; preds = %if.else, %if.then8
  %24 = load ptr, ptr %filename.addr, align 8
  %call15 = call noundef i64 @_ZNKSt7__cxx1112basic_stringIcSt11char_traitsIcESaIcEE4findERKS4_m(ptr noundef nonnull align 8 dereferenceable(32) %24, ptr noundef nonnull align 8 dereferenceable(32) @_ZZN6Assimp18ZipArchiveIOSystem9Implement16SimplifyFilenameERNSt7__cxx1112basic_stringIcSt11char_traitsIcESaIcEEEE8relativeB5cxx11, i64 noundef 0) #9
  store i64 %call15, ptr %pos, align 8
  br label %while.cond, !llvm.loop !9

while.end:                                        ; preds = %while.cond
  ret void

eh.resume:                                        ; preds = %lpad
  %exn = load ptr, ptr %exn.slot, align 8
  %sel = load i32, ptr %ehselector.slot, align 4
  %lpad.val = insertvalue { ptr, i32 } poison, ptr %exn, 0
  %lpad.val16 = insertvalue { ptr, i32 } %lpad.val, i32 %sel, 1
  resume { ptr, i32 } %lpad.val16
}