; Function Attrs: mustprogress uwtable
define hidden void @_ZN6Assimp18ZipArchiveIOSystem9Implement16SimplifyFilenameERNSt7__cxx1112basic_stringIcSt11char_traitsIcESaIcEEE(ptr noundef nonnull align 8 dereferenceable(32) %filename) local_unnamed_addr #2 align 2 personality ptr @__gxx_personality_v0 {
entry:
  %ref.tmp = alloca %"class.std::allocator.0", align 1
  %call.i = tail call noundef i64 @_ZNKSt7__cxx1112basic_stringIcSt11char_traitsIcESaIcEE4findEcm(ptr noundef nonnull align 8 dereferenceable(32) %filename, i8 noundef signext 92, i64 noundef 0) #28
  %cmp.not6.i = icmp eq i64 %call.i, -1
  br i1 %cmp.not6.i, label %_ZN6Assimp14ReplaceAllCharERNSt7__cxx1112basic_stringIcSt11char_traitsIcESaIcEEEcc.exit, label %while.body.i

while.body.i:                                     ; preds = %entry, %while.body.i
  %pos.07.i = phi i64 [ %call2.i, %while.body.i ], [ %call.i, %entry ]
  %call1.i = tail call noundef nonnull align 1 dereferenceable(1) ptr @_ZNSt7__cxx1112basic_stringIcSt11char_traitsIcESaIcEEixEm(ptr noundef nonnull align 8 dereferenceable(32) %filename, i64 noundef %pos.07.i)
  store i8 47, ptr %call1.i, align 1
  %add.i = add nuw i64 %pos.07.i, 1
  %call2.i = tail call noundef i64 @_ZNKSt7__cxx1112basic_stringIcSt11char_traitsIcESaIcEE4findEcm(ptr noundef nonnull align 8 dereferenceable(32) %filename, i8 noundef signext 92, i64 noundef %add.i) #28
  %cmp.not.i = icmp eq i64 %call2.i, -1
  br i1 %cmp.not.i, label %_ZN6Assimp14ReplaceAllCharERNSt7__cxx1112basic_stringIcSt11char_traitsIcESaIcEEEcc.exit, label %while.body.i, !llvm.loop !12

_ZN6Assimp14ReplaceAllCharERNSt7__cxx1112basic_stringIcSt11char_traitsIcESaIcEEEcc.exit: ; preds = %while.body.i, %entry
  %call = tail call noundef i64 @_ZNKSt7__cxx1112basic_stringIcSt11char_traitsIcESaIcEE17find_first_not_ofEPKcm(ptr noundef nonnull align 8 dereferenceable(32) %filename, ptr noundef nonnull @.str.4, i64 noundef 0) #28
  %cmp.not = icmp eq i64 %call, 0
  br i1 %cmp.not, label %if.end, label %if.then

if.then:                                          ; preds = %_ZN6Assimp14ReplaceAllCharERNSt7__cxx1112basic_stringIcSt11char_traitsIcESaIcEEEcc.exit
  %call1 = tail call noundef nonnull align 8 dereferenceable(32) ptr @_ZNSt7__cxx1112basic_stringIcSt11char_traitsIcESaIcEE5eraseEmm(ptr noundef nonnull align 8 dereferenceable(32) %filename, i64 noundef 0, i64 noundef %call)
  br label %if.end

if.end:                                           ; preds = %if.then, %_ZN6Assimp14ReplaceAllCharERNSt7__cxx1112basic_stringIcSt11char_traitsIcESaIcEEEcc.exit
  %0 = load atomic i8, ptr @_ZGVZN6Assimp18ZipArchiveIOSystem9Implement16SimplifyFilenameERNSt7__cxx1112basic_stringIcSt11char_traitsIcESaIcEEEE8relativeB5cxx11 acquire, align 8
  %guard.uninitialized = icmp eq i8 %0, 0
  br i1 %guard.uninitialized, label %init.check, label %init.end, !prof !13

init.check:                                       ; preds = %if.end
  %1 = tail call i32 @__cxa_guard_acquire(ptr nonnull @_ZGVZN6Assimp18ZipArchiveIOSystem9Implement16SimplifyFilenameERNSt7__cxx1112basic_stringIcSt11char_traitsIcESaIcEEEE8relativeB5cxx11) #28
  %tobool.not = icmp eq i32 %1, 0
  br i1 %tobool.not, label %init.end, label %init

init:                                             ; preds = %init.check
  call void @_ZNSaIcEC1Ev(ptr noundef nonnull align 1 dereferenceable(1) %ref.tmp) #28
  invoke void @_ZNSt7__cxx1112basic_stringIcSt11char_traitsIcESaIcEEC2IS3_EEPKcRKS3_(ptr noundef nonnull align 8 dereferenceable(32) @_ZZN6Assimp18ZipArchiveIOSystem9Implement16SimplifyFilenameERNSt7__cxx1112basic_stringIcSt11char_traitsIcESaIcEEEE8relativeB5cxx11, ptr noundef nonnull @.str.5, ptr noundef nonnull align 1 dereferenceable(1) %ref.tmp)
          to label %invoke.cont unwind label %lpad

invoke.cont:                                      ; preds = %init
  call void @_ZNSaIcED1Ev(ptr noundef nonnull align 1 dereferenceable(1) %ref.tmp) #28
  %2 = call i32 @__cxa_atexit(ptr nonnull @_ZNSt7__cxx1112basic_stringIcSt11char_traitsIcESaIcEED1Ev, ptr nonnull @_ZZN6Assimp18ZipArchiveIOSystem9Implement16SimplifyFilenameERNSt7__cxx1112basic_stringIcSt11char_traitsIcESaIcEEEE8relativeB5cxx11, ptr nonnull @__dso_handle) #28
  call void @__cxa_guard_release(ptr nonnull @_ZGVZN6Assimp18ZipArchiveIOSystem9Implement16SimplifyFilenameERNSt7__cxx1112basic_stringIcSt11char_traitsIcESaIcEEEE8relativeB5cxx11) #28
  br label %init.end

init.end:                                         ; preds = %invoke.cont, %init.check, %if.end
  %call2 = call noundef i64 @_ZNKSt7__cxx1112basic_stringIcSt11char_traitsIcESaIcEE4sizeEv(ptr noundef nonnull align 8 dereferenceable(32) @_ZZN6Assimp18ZipArchiveIOSystem9Implement16SimplifyFilenameERNSt7__cxx1112basic_stringIcSt11char_traitsIcESaIcEEEE8relativeB5cxx11) #28
  %sub = add i64 %call2, -1
  %call3 = call noundef i64 @_ZNKSt7__cxx1112basic_stringIcSt11char_traitsIcESaIcEE4findERKS4_m(ptr noundef nonnull align 8 dereferenceable(32) %filename, ptr noundef nonnull align 8 dereferenceable(32) @_ZZN6Assimp18ZipArchiveIOSystem9Implement16SimplifyFilenameERNSt7__cxx1112basic_stringIcSt11char_traitsIcESaIcEEEE8relativeB5cxx11, i64 noundef 0) #28
  %cmp4.not16 = icmp eq i64 %call3, -1
  br i1 %cmp4.not16, label %while.end, label %while.body

while.body:                                       ; preds = %init.end, %if.end14
  %pos.017 = phi i64 [ %call15, %if.end14 ], [ %call3, %init.end ]
  %sub5 = add i64 %pos.017, -1
  %call6 = call noundef i64 @_ZNKSt7__cxx1112basic_stringIcSt11char_traitsIcESaIcEE5rfindEcm(ptr noundef nonnull align 8 dereferenceable(32) %filename, i8 noundef signext 47, i64 noundef %sub5) #28
  %cmp7 = icmp eq i64 %call6, %pos.017
  br i1 %cmp7, label %if.then8, label %if.else

if.then8:                                         ; preds = %while.body
  %call9 = call noundef i64 @_ZNKSt7__cxx1112basic_stringIcSt11char_traitsIcESaIcEE4sizeEv(ptr noundef nonnull align 8 dereferenceable(32) @_ZZN6Assimp18ZipArchiveIOSystem9Implement16SimplifyFilenameERNSt7__cxx1112basic_stringIcSt11char_traitsIcESaIcEEEE8relativeB5cxx11) #28
  %add = add i64 %call9, %pos.017
  %call10 = call noundef nonnull align 8 dereferenceable(32) ptr @_ZNSt7__cxx1112basic_stringIcSt11char_traitsIcESaIcEE5eraseEmm(ptr noundef nonnull align 8 dereferenceable(32) %filename, i64 noundef 0, i64 noundef %add)
  br label %if.end14

lpad:                                             ; preds = %init
  %3 = landingpad { ptr, i32 }
          cleanup
  call void @_ZNSaIcED1Ev(ptr noundef nonnull align 1 dereferenceable(1) %ref.tmp) #28
  call void @__cxa_guard_abort(ptr nonnull @_ZGVZN6Assimp18ZipArchiveIOSystem9Implement16SimplifyFilenameERNSt7__cxx1112basic_stringIcSt11char_traitsIcESaIcEEEE8relativeB5cxx11) #28
  resume { ptr, i32 } %3

if.else:                                          ; preds = %while.body
  %add11 = add i64 %sub, %pos.017
  %sub12 = sub i64 %add11, %call6
  %call13 = call noundef nonnull align 8 dereferenceable(32) ptr @_ZNSt7__cxx1112basic_stringIcSt11char_traitsIcESaIcEE5eraseEmm(ptr noundef nonnull align 8 dereferenceable(32) %filename, i64 noundef %call6, i64 noundef %sub12)
  br label %if.end14

if.end14:                                         ; preds = %if.else, %if.then8
  %call15 = call noundef i64 @_ZNKSt7__cxx1112basic_stringIcSt11char_traitsIcESaIcEE4findERKS4_m(ptr noundef nonnull align 8 dereferenceable(32) %filename, ptr noundef nonnull align 8 dereferenceable(32) @_ZZN6Assimp18ZipArchiveIOSystem9Implement16SimplifyFilenameERNSt7__cxx1112basic_stringIcSt11char_traitsIcESaIcEEEE8relativeB5cxx11, i64 noundef 0) #28
  %cmp4.not = icmp eq i64 %call15, -1
  br i1 %cmp4.not, label %while.end, label %while.body, !llvm.loop !14

while.end:                                        ; preds = %if.end14, %init.end
  ret void
}